target datalayout = "e-m:e-p270:32:32-p271:32:32-p272:64:64-i64:64-i128:128-f80:128-n8:16:32:64-S128"
target triple = "x86_64-pc-linux-gnu"

%struct.jit_State = type { %struct.GCtrace, ptr, ptr, ptr, ptr, ptr, ptr, i32, i32, i32, i8, i8, %struct.IRType1, i8, %struct.FoldState, ptr, i32, i32, i32, i32, i32, i32, i32, [1 x i32], [5 x %union.TValue], [3 x %union.TValue], ptr, i32, i32, i32, i32, ptr, ptr, i32, i32, i8, ptr, i32, i32, i16, [101 x i16], [258 x i32], [15 x i32], [16 x ptr], [64 x %struct.HotPenalty], i32, [16 x %struct.BPropEntry], i32, %struct.ScEvEntry, ptr, i32, i32, i32, ptr, i32, i32, ptr, ptr, ptr, i64, i64, %union.TValue, ptr, i32, i32 }
%struct.GCtrace = type { %struct.GCRef, i8, i8, i16, i32, i32, %struct.GCRef, ptr, i32, i32, ptr, ptr, %struct.GCRef, %struct.MRef, i32, i32, ptr, i32, i16, i16, i16, i16, i16, i16, i16, i8, i8, i8, i8 }
%struct.GCRef = type { i64 }
%struct.MRef = type { i64 }
%struct.IRType1 = type { i8 }
%struct.FoldState = type { %union.IRIns, [2 x %union.IRIns], [2 x %union.IRIns] }
%union.IRIns = type { %struct.GCRef }
%struct.HotPenalty = type { %struct.MRef, i16, i16 }
%struct.BPropEntry = type { i16, i16, i32 }
%struct.ScEvEntry = type { %struct.MRef, i16, i16, i16, i16, %struct.IRType1, i8 }
%union.TValue = type { i64 }
%struct.RecordFFData = type { ptr, i64, i32 }
%struct.GCcdata = type { %struct.GCRef, i8, i8, i16 }
%struct.anon = type { i16, i16, i16, i16 }

; Function Attrs: alwaysinline nounwind uwtable
define internal void @lj_ir_set_(ptr noundef %0, i16 noundef zeroext %1, i16 noundef zeroext %2, i16 noundef zeroext %3) #2 {
  %5 = alloca ptr, align 8
  %6 = alloca i16, align 2
  %7 = alloca i16, align 2
  %8 = alloca i16, align 2
  store ptr %0, ptr %5, align 8, !tbaa !4
  store i16 %1, ptr %6, align 2, !tbaa !70
  store i16 %2, ptr %7, align 2, !tbaa !70
  store i16 %3, ptr %8, align 2, !tbaa !70
  %9 = load i16, ptr %6, align 2, !tbaa !70
  %10 = load ptr, ptr %5, align 8, !tbaa !4
  %11 = getelementptr inbounds nuw %struct.jit_State, ptr %10, i32 0, i32 14
  %12 = getelementptr inbounds nuw %struct.FoldState, ptr %11, i32 0, i32 0
  %13 = getelementptr inbounds nuw %struct.anon, ptr %12, i32 0, i32 2
  store i16 %9, ptr %13, align 4, !tbaa !58
  %14 = load i16, ptr %7, align 2, !tbaa !70
  %15 = load ptr, ptr %5, align 8, !tbaa !4
  %16 = getelementptr inbounds nuw %struct.jit_State, ptr %15, i32 0, i32 14
  %17 = getelementptr inbounds nuw %struct.FoldState, ptr %16, i32 0, i32 0
  %18 = getelementptr inbounds nuw %struct.anon, ptr %17, i32 0, i32 0
  store i16 %14, ptr %18, align 8, !tbaa !58
  %19 = load i16, ptr %8, align 2, !tbaa !70
  %20 = load ptr, ptr %5, align 8, !tbaa !4
  %21 = getelementptr inbounds nuw %struct.jit_State, ptr %20, i32 0, i32 14
  %22 = getelementptr inbounds nuw %struct.FoldState, ptr %21, i32 0, i32 0
  %23 = getelementptr inbounds nuw %struct.anon, ptr %22, i32 0, i32 1
  store i16 %19, ptr %23, align 2, !tbaa !58
  ret void
}

; Function Attrs: nounwind uwtable
define internal void @crec_finalizer(ptr noundef %0, i32 noundef %1, i32 noundef %2, ptr noundef %3) #0 {
  %5 = alloca ptr, align 8
  %6 = alloca i32, align 4
  %7 = alloca i32, align 4
  %8 = alloca ptr, align 8
  store ptr %0, ptr %5, align 8, !tbaa !4
  store i32 %1, ptr %6, align 4, !tbaa !31
  store i32 %2, ptr %7, align 4, !tbaa !31
  store ptr %3, ptr %8, align 8, !tbaa !67
  %9 = load ptr, ptr %8, align 8, !tbaa !67
  %10 = load i64, ptr %9, align 8, !tbaa !58
  %11 = ashr i64 %10, 47
  %12 = trunc i64 %11 to i32
  %13 = sub i32 %12, -4
  %14 = icmp ugt i32 %13, -10
  br i1 %14, label %15, label %27

15:                                               ; preds = %4
  %16 = load i32, ptr %7, align 4, !tbaa !31
  %17 = icmp ne i32 %16, 0
  br i1 %17, label %26, label %18

18:                                               ; preds = %15
  %19 = load ptr, ptr %5, align 8, !tbaa !4
  %20 = load ptr, ptr %8, align 8, !tbaa !67
  %21 = getelementptr inbounds nuw %struct.GCRef, ptr %20, i32 0, i32 0
  %22 = load i64, ptr %21, align 8, !tbaa !58
  %23 = and i64 %22, 140737488355327
  %24 = inttoptr i64 %23 to ptr
  %25 = call i32 @lj_ir_kptr_(ptr noundef %19, i32 noundef 25, ptr noundef %24)
  store i32 %25, ptr %7, align 4, !tbaa !31
  br label %26

26:                                               ; preds = %18, %15
  br label %37

27:                                               ; preds = %4
  %28 = load ptr, ptr %8, align 8, !tbaa !67
  %29 = load i64, ptr %28, align 8, !tbaa !58
  %30 = icmp eq i64 %29, -1
  br i1 %30, label %31, label %34

31:                                               ; preds = %27
  %32 = load ptr, ptr %5, align 8, !tbaa !4
  %33 = call i32 @lj_ir_kptr_(ptr noundef %32, i32 noundef 25, ptr noundef null)
  store i32 %33, ptr %7, align 4, !tbaa !31
  br label %36

34:                                               ; preds = %27
  %35 = load ptr, ptr %5, align 8, !tbaa !4
  call void @lj_trace_err(ptr noundef %35, i32 noundef 11) #8
  unreachable

36:                                               ; preds = %31
  br label %37

37:                                               ; preds = %36, %26
  %38 = load ptr, ptr %5, align 8, !tbaa !4
  %39 = load i32, ptr %6, align 4, !tbaa !31
  %40 = load i32, ptr %7, align 4, !tbaa !31
  %41 = load ptr, ptr %5, align 8, !tbaa !4
  %42 = load ptr, ptr %8, align 8, !tbaa !67
  %43 = load i64, ptr %42, align 8, !tbaa !58
  %44 = ashr i64 %43, 47
  %45 = trunc i64 %44 to i32
  %46 = call i32 @lj_ir_kint(ptr noundef %41, i32 noundef %45)
  %47 = call i32 (ptr, i32, ...) @lj_ir_call(ptr noundef %38, i32 noundef 102, i32 noundef %39, i32 noundef %40, i32 noundef %46)
  %48 = load ptr, ptr %5, align 8, !tbaa !4
  %49 = getelementptr inbounds nuw %struct.jit_State, ptr %48, i32 0, i32 11
  store i8 1, ptr %49, align 1, !tbaa !66
  ret void
}

; Function Attrs: nounwind uwtable
define internal ptr @argv2cdata(ptr noundef %0, i32 noundef %1, ptr noundef %2) #0 {
  %4 = alloca ptr, align 8
  %5 = alloca i32, align 4
  %6 = alloca ptr, align 8
  %7 = alloca ptr, align 8
  %8 = alloca i32, align 4
  store ptr %0, ptr %4, align 8, !tbaa !4
  store i32 %1, ptr %5, align 4, !tbaa !31
  store ptr %2, ptr %6, align 8, !tbaa !67
  call void @llvm.lifetime.start.p0(i64 8, ptr %7) #7
  call void @llvm.lifetime.start.p0(i64 4, ptr %8) #7
  %9 = load i32, ptr %5, align 4, !tbaa !31
  %10 = and i32 %9, 520093696
  %11 = icmp eq i32 %10, 167772160
  br i1 %11, label %14, label %12

12:                                               ; preds = %3
  %13 = load ptr, ptr %4, align 8, !tbaa !4
  call void @lj_trace_err(ptr noundef %13, i32 noundef 11) #8
  unreachable

14:                                               ; preds = %3
  %15 = load ptr, ptr %6, align 8, !tbaa !67
  %16 = getelementptr inbounds nuw %struct.GCRef, ptr %15, i32 0, i32 0
  %17 = load i64, ptr %16, align 8, !tbaa !58
  %18 = and i64 %17, 140737488355327
  %19 = inttoptr i64 %18 to ptr
  store ptr %19, ptr %7, align 8, !tbaa !36
  %20 = load ptr, ptr %4, align 8, !tbaa !4
  %21 = load i32, ptr %5, align 4, !tbaa !31
  %22 = trunc i32 %21 to i16
  call void @lj_ir_set_(ptr noundef %20, i16 noundef zeroext 17682, i16 noundef zeroext %22, i16 noundef zeroext 20)
  %23 = load ptr, ptr %4, align 8, !tbaa !4
  %24 = call i32 @lj_opt_fold(ptr noundef %23)
  store i32 %24, ptr %8, align 4, !tbaa !31
  %25 = load ptr, ptr %4, align 8, !tbaa !4
  %26 = load i32, ptr %8, align 4, !tbaa !31
  %27 = trunc i32 %26 to i16
  %28 = load ptr, ptr %4, align 8, !tbaa !4
  %29 = load ptr, ptr %7, align 8, !tbaa !36
  %30 = getelementptr inbounds nuw %struct.GCcdata, ptr %29, i32 0, i32 3
  %31 = load i16, ptr %30, align 2, !tbaa !51
  %32 = zext i16 %31 to i32
  %33 = call i32 @lj_ir_kint(ptr noundef %28, i32 noundef %32)
  %34 = trunc i32 %33 to i16
  call void @lj_ir_set_(ptr noundef %25, i16 noundef zeroext 2195, i16 noundef zeroext %27, i16 noundef zeroext %34)
  %35 = load ptr, ptr %4, align 8, !tbaa !4
  %36 = call i32 @lj_opt_fold(ptr noundef %35)
  %37 = load ptr, ptr %7, align 8, !tbaa !36
  call void @llvm.lifetime.end.p0(i64 4, ptr %8) #7
  call void @llvm.lifetime.end.p0(i64 8, ptr %7) #7
  ret ptr %37
}

; Function Attrs: nounwind uwtable
define hidden void @recff_ffi_gc(ptr noundef %0, ptr noundef %1) #0 {
  %3 = alloca ptr, align 8
  %4 = alloca ptr, align 8
  store ptr %0, ptr %3, align 8, !tbaa !4
  store ptr %1, ptr %4, align 8, !tbaa !9
  %5 = load ptr, ptr %3, align 8, !tbaa !4
  %6 = load ptr, ptr %3, align 8, !tbaa !4
  %7 = getelementptr inbounds nuw %struct.jit_State, ptr %6, i32 0, i32 6
  %8 = load ptr, ptr %7, align 8, !tbaa !11
  %9 = getelementptr inbounds i32, ptr %8, i64 0
  %10 = load i32, ptr %9, align 4, !tbaa !31
  %11 = load ptr, ptr %4, align 8, !tbaa !9
  %12 = getelementptr inbounds nuw %struct.RecordFFData, ptr %11, i32 0, i32 0
  %13 = load ptr, ptr %12, align 8, !tbaa !33
  %14 = getelementptr inbounds %union.TValue, ptr %13, i64 0
  %15 = call ptr @argv2cdata(ptr noundef %5, i32 noundef %10, ptr noundef %14)
  %16 = load ptr, ptr %3, align 8, !tbaa !4
  %17 = getelementptr inbounds nuw %struct.jit_State, ptr %16, i32 0, i32 6
  %18 = load ptr, ptr %17, align 8, !tbaa !11
  %19 = getelementptr inbounds i32, ptr %18, i64 1
  %20 = load i32, ptr %19, align 4, !tbaa !31
  %21 = icmp ne i32 %20, 0
  br i1 %21, label %24, label %22

22:                                               ; preds = %2
  %23 = load ptr, ptr %3, align 8, !tbaa !4
  call void @lj_trace_err(ptr noundef %23, i32 noundef 11) #8
  unreachable

24:                                               ; preds = %2
  %25 = load ptr, ptr %3, align 8, !tbaa !4
  %26 = load ptr, ptr %3, align 8, !tbaa !4
  %27 = getelementptr inbounds nuw %struct.jit_State, ptr %26, i32 0, i32 6
  %28 = load ptr, ptr %27, align 8, !tbaa !11
  %29 = getelementptr inbounds i32, ptr %28, i64 0
  %30 = load i32, ptr %29, align 4, !tbaa !31
  %31 = load ptr, ptr %3, align 8, !tbaa !4
  %32 = getelementptr inbounds nuw %struct.jit_State, ptr %31, i32 0, i32 6
  %33 = load ptr, ptr %32, align 8, !tbaa !11
  %34 = getelementptr inbounds i32, ptr %33, i64 1
  %35 = load i32, ptr %34, align 4, !tbaa !31
  %36 = load ptr, ptr %4, align 8, !tbaa !9
  %37 = getelementptr inbounds nuw %struct.RecordFFData, ptr %36, i32 0, i32 0
  %38 = load ptr, ptr %37, align 8, !tbaa !33
  %39 = getelementptr inbounds %union.TValue, ptr %38, i64 1
  call void @crec_finalizer(ptr noundef %25, i32 noundef %30, i32 noundef %35, ptr noundef %39)
  ret void
}