; Function Attrs: nounwind uwtable
define hidden void @recff_ffi_gc(ptr noundef %0, ptr noundef readonly captures(none) %1) local_unnamed_addr #0 {
  %3 = getelementptr inbounds nuw i8, ptr %0, i64 160
  %4 = load ptr, ptr %3, align 8, !tbaa !4
  %5 = load i32, ptr %4, align 4, !tbaa !27
  %6 = and i32 %5, 520093696
  %7 = icmp eq i32 %6, 167772160
  br i1 %7, label %argv2cdata.exit, label %8

8:                                                ; preds = %2
  tail call void @lj_trace_err(ptr noundef nonnull %0, i32 noundef 11) #7
  unreachable

argv2cdata.exit:                                  ; preds = %2
  %9 = load ptr, ptr %1, align 8, !tbaa !28
  %10 = load i64, ptr %9, align 8, !tbaa !31
  %11 = and i64 %10, 140737488355327
  %12 = inttoptr i64 %11 to ptr
  %13 = trunc i32 %5 to i16
  %14 = getelementptr inbounds nuw i8, ptr %0, i64 184
  %15 = getelementptr inbounds nuw i8, ptr %0, i64 188
  store i16 17682, ptr %15, align 4, !tbaa !31
  store i16 %13, ptr %14, align 8, !tbaa !31
  %16 = getelementptr inbounds nuw i8, ptr %0, i64 186
  store i16 20, ptr %16, align 2, !tbaa !31
  %17 = tail call i32 @lj_opt_fold(ptr noundef nonnull %0) #8
  %18 = trunc i32 %17 to i16
  %19 = getelementptr inbounds nuw i8, ptr %12, i64 10
  %20 = load i16, ptr %19, align 2, !tbaa !32
  %21 = zext i16 %20 to i32
  %22 = tail call i32 @lj_ir_kint(ptr noundef nonnull %0, i32 noundef %21) #8
  %23 = trunc i32 %22 to i16
  store i16 2195, ptr %15, align 4, !tbaa !31
  store i16 %18, ptr %14, align 8, !tbaa !31
  store i16 %23, ptr %16, align 2, !tbaa !31
  %24 = tail call i32 @lj_opt_fold(ptr noundef nonnull %0) #8
  %25 = load ptr, ptr %3, align 8, !tbaa !4
  %26 = getelementptr inbounds nuw i8, ptr %25, i64 4
  %27 = load i32, ptr %26, align 4, !tbaa !27
  %.not = icmp eq i32 %27, 0
  br i1 %.not, label %28, label %29

28:                                               ; preds = %argv2cdata.exit
  tail call void @lj_trace_err(ptr noundef nonnull %0, i32 noundef 11) #7
  unreachable

29:                                               ; preds = %argv2cdata.exit
  %30 = load i32, ptr %25, align 4, !tbaa !27
  %31 = load ptr, ptr %1, align 8, !tbaa !28
  %32 = getelementptr inbounds nuw i8, ptr %31, i64 8
  %33 = load i64, ptr %32, align 8, !tbaa !31
  %34 = ashr i64 %33, 47
  %35 = trunc nsw i64 %34 to i32
  %36 = add nsw i32 %35, 13
  %37 = icmp ult i32 %36, 9
  br i1 %37, label %crec_finalizer.exit, label %38

38:                                               ; preds = %29
  %39 = icmp eq i64 %33, -1
  br i1 %39, label %.sink.split.i, label %40

40:                                               ; preds = %38
  tail call void @lj_trace_err(ptr noundef nonnull %0, i32 noundef 11) #7
  unreachable

.sink.split.i:                                    ; preds = %38
  %41 = tail call i32 @lj_ir_kptr_(ptr noundef nonnull %0, i32 noundef 25, ptr noundef null) #8
  %.pre = load i64, ptr %32, align 8, !tbaa !31
  %.pre9 = ashr i64 %.pre, 47
  %.pre10 = trunc nsw i64 %.pre9 to i32
  br label %crec_finalizer.exit

crec_finalizer.exit:                              ; preds = %29, %.sink.split.i
  %.pre-phi11 = phi i32 [ %35, %29 ], [ %.pre10, %.sink.split.i ]
  %.0.i = phi i32 [ %27, %29 ], [ %41, %.sink.split.i ]
  %42 = tail call i32 @lj_ir_kint(ptr noundef nonnull %0, i32 noundef %.pre-phi11) #8
  %43 = tail call i32 (ptr, i32, ...) @lj_ir_call(ptr noundef nonnull %0, i32 noundef 102, i32 noundef %30, i32 noundef %.0.i, i32 noundef %42) #8
  %44 = getelementptr inbounds nuw i8, ptr %0, i64 181
  store i8 1, ptr %44, align 1, !tbaa !66
  ret void
}